target datalayout = "e-m:e-p270:32:32-p271:32:32-p272:64:64-i64:64-i128:128-f80:128-n8:16:32:64-S128"
target triple = "x86_64-pc-linux-gnu"

%struct.ipmi_packet_data_t = type { ptr, ptr, i32, ptr, i8, i8, i8, i8, ptr, i8 }
%struct.nstime_t = type { i64, i32 }
%struct.ipmi_frame_data_t = type { [3 x ptr], %struct.nstime_t }
%struct.ipmi_cmd_data_t = type { i32, [2 x i32] }

; Function Attrs: null_pointer_is_valid sspstrong uwtable
define hidden void @ipmi_set_data(ptr noundef %0, i32 noundef %1, i32 noundef %2) #0 {
  %4 = alloca ptr, align 8
  %5 = alloca i32, align 4
  %6 = alloca i32, align 4
  %7 = alloca ptr, align 8
  %8 = alloca i32, align 4
  store ptr %0, ptr %4, align 8
  store i32 %1, ptr %5, align 4
  store i32 %2, ptr %6, align 4
  call void @llvm.lifetime.start.p0(i64 8, ptr %7) #10
  %9 = load ptr, ptr %4, align 8
  %10 = call ptr @get_packet_data(ptr noundef %9)
  store ptr %10, ptr %7, align 8
  %11 = load ptr, ptr %7, align 8
  %12 = getelementptr inbounds nuw %struct.ipmi_packet_data_t, ptr %11, i32 0, i32 4
  %13 = load i8, ptr %12, align 8
  %14 = zext i8 %13 to i32
  %15 = icmp sge i32 %14, 3
  br i1 %15, label %24, label %16

16:                                               ; preds = %3
  %17 = load i32, ptr %5, align 4
  %18 = icmp uge i32 %17, 2
  br i1 %18, label %24, label %19

19:                                               ; preds = %16
  %20 = load ptr, ptr %7, align 8
  %21 = getelementptr inbounds nuw %struct.ipmi_packet_data_t, ptr %20, i32 0, i32 3
  %22 = load ptr, ptr %21, align 8
  %23 = icmp ne ptr %22, null
  br i1 %23, label %25, label %24

24:                                               ; preds = %19, %16, %3
  store i32 1, ptr %8, align 4
  br label %41

25:                                               ; preds = %19
  %26 = load i32, ptr %6, align 4
  %27 = load ptr, ptr %7, align 8
  %28 = getelementptr inbounds nuw %struct.ipmi_packet_data_t, ptr %27, i32 0, i32 3
  %29 = load ptr, ptr %28, align 8
  %30 = getelementptr inbounds nuw %struct.ipmi_frame_data_t, ptr %29, i32 0, i32 0
  %31 = load ptr, ptr %7, align 8
  %32 = getelementptr inbounds nuw %struct.ipmi_packet_data_t, ptr %31, i32 0, i32 4
  %33 = load i8, ptr %32, align 8
  %34 = zext i8 %33 to i64
  %35 = getelementptr [3 x ptr], ptr %30, i64 0, i64 %34
  %36 = load ptr, ptr %35, align 8
  %37 = getelementptr inbounds nuw %struct.ipmi_cmd_data_t, ptr %36, i32 0, i32 1
  %38 = load i32, ptr %5, align 4
  %39 = zext i32 %38 to i64
  %40 = getelementptr [2 x i32], ptr %37, i64 0, i64 %39
  store i32 %26, ptr %40, align 4
  store i32 0, ptr %8, align 4
  br label %41

41:                                               ; preds = %25, %24
  call void @llvm.lifetime.end.p0(i64 8, ptr %7) #10
  %42 = load i32, ptr %8, align 4
  switch i32 %42, label %44 [
    i32 0, label %43
    i32 1, label %43
  ]

43:                                               ; preds = %41, %41
  ret void

44:                                               ; preds = %41
  unreachable
}