; Function Attrs: null_pointer_is_valid sspstrong uwtable
define hidden void @ipmi_set_data(ptr noundef %0, i32 noundef %1, i32 noundef %2) local_unnamed_addr #0 {
  %4 = tail call fastcc ptr @get_packet_data(ptr noundef %0)
  %5 = getelementptr inbounds nuw i8, ptr %4, i64 32
  %6 = load i8, ptr %5, align 8
  %7 = icmp ugt i8 %6, 2
  %8 = icmp ugt i32 %1, 1
  %or.cond = or i1 %8, %7
  br i1 %or.cond, label %19, label %9

9:                                                ; preds = %3
  %10 = getelementptr inbounds nuw i8, ptr %4, i64 24
  %11 = load ptr, ptr %10, align 8
  %.not = icmp eq ptr %11, null
  br i1 %.not, label %19, label %12

12:                                               ; preds = %9
  %13 = zext nneg i8 %6 to i64
  %14 = getelementptr [3 x ptr], ptr %11, i64 0, i64 %13
  %15 = load ptr, ptr %14, align 8
  %16 = getelementptr inbounds nuw i8, ptr %15, i64 4
  %17 = zext nneg i32 %1 to i64
  %18 = getelementptr [2 x i32], ptr %16, i64 0, i64 %17
  store i32 %2, ptr %18, align 4
  br label %19

19:                                               ; preds = %3, %9, %12
  ret void
}